ccopy_reg
_reconstructor
p0
(ctp.client.ChangeDict
ChangeDict
p1
c__builtin__
dict
p2
(dp3
I0
g0
(ctp.netlib.objects.ObjectExtra.Universe
Universe
p4
c__builtin__
object
p5
Ntp6
Rp7
(dp8
S'_type'
p9
I7
sS'modify_time'
p10
cdatetime
datetime
p11
(S'\x07\xd8\x06\x06\x00"\x08\x00\x00\x00'
p12
tp13
Rp14
sS'protocol'
p15
S'TP03'
p16
sS'name'
p17
VThe Universe
p18
sS'sequence'
p19
I19
sS'contains'
p20
(lp21
I1
asS'pos'
p22
(I0
I0
I0
tp23
sS'_subtype'
p24
I0
sS'turn'
p25
I4
sS'length'
p26
I116
sS'vel'
p27
(I0
I0
I0
tp28
sS'order_types'
p29
(lp30
sS'order_number'
p31
I0
sS'id'
p32
I0
sS'size'
p33
L1000000000000L
sbsI1
g0
(ctp.netlib.objects.ObjectExtra.Galaxy
Galaxy
p34
g5
Ntp35
Rp36
(dp37
g9
I7
sg10
g11
(S'\x07\xd8\x06\x06\x00\x1c\x07\x00\x00\x00'
p38
tp39
Rp40
sg15
g16
sg17
VMilky Way Galaxy
p41
sS'parent'
p42
I0
sg19
I19
sg20
(lp43
I2
aI3
aI4
aI10
aI13
aI16
aI19
aI22
aI23
aI24
aI27
aI29
aI30
aI33
aI35
aI37
aI42
asg22
(I0
I-6000
I0
tp44
sg24
I1
sg26
I180
sg27
(I0
I0
I0
tp45
sg29
(lp46
sg31
I0
sg32
I1
sg33
L100000000000L
sbsI2
g0
(ctp.netlib.objects.ObjectExtra.StarSystem
StarSystem
p47
g5
Ntp48
Rp49
(dp50
g9
I7
sg10
g11
(S'\x07\xd8\x06\x06\x00\x197\x00\x00\x00'
p51
tp52
Rp53
sg15
g16
sg17
VSol/Terra System
p54
sg42
I1
sg19
I19
sg20
(lp55
I5
aI6
aI7
asg22
(L3000000000L
I2000000000
I0
tp56
sg24
I2
sg26
I124
sg27
(I0
I0
I0
tp57
sg29
(lp58
sS'planets'
p59
I3
sg31
I0
sg32
I2
sg33
I60000
sbsI3
g0
(g47
g5
Ntp60
Rp61
(dp62
g9
I7
sg10
g11
(S'\x07\xd8\x06\x06\x00\x197\x00\x00\x00'
p63
tp64
Rp65
sg15
g16
sg17
VAlpha Centauri System
p66
sg42
I1
sg19
I19
sg20
(lp67
I8
asg22
(I-1500000000
I1500000000
I0
tp68
sg24
I2
sg26
I121
sg27
(I0
I0
I0
tp69
sg29
(lp70
sg59
I1
sg31
I0
sg32
I3
sg33
I90000
sbsI4
g0
(g47
g5
Ntp71
Rp72
(dp73
g9
I7
sg10
g11
(S'\x07\xd8\x06\x06\x00\x197\x00\x00\x00'
p74
tp75
Rp76
sg15
g16
sg17
VSirius System
p77
sg42
I1
sg19
I19
sg20
(lp78
I9
asg22
(I-250000000
L-4000000000L
I0
tp79
sg24
I2
sg26
I113
sg27
(I0
I0
I0
tp80
sg29
(lp81
sg59
I1
sg31
I0
sg32
I4
sg33
I60000
sbsI5
g0
(ctp.netlib.objects.ObjectExtra.Planet
Planet
p82
g5
Ntp83
Rp84
(dp85
S'index'
p86
I1
sg9
I7
sg10
g11
(S'\x07\xd8\x06\x06\x00\x197\x00\x00\x00'
p87
tp88
Rp89
sg15
g16
sg17
VEarth/Terra
p90
sg42
I2
sg19
I19
sg20
(lp91
sg22
(L3000014960L
I2000000000
I0
tp92
sg24
I3
sg26
I115
sg27
(I0
I0
I0
tp93
sg29
(lp94
sS'owner'
p95
I-1
sg31
I0
sg32
I5
sS'resources'
p96
(lp97
sg33
I2
sbsI6
g0
(g82
g5
Ntp98
Rp99
(dp100
g86
I2
sg9
I7
sg10
g11
(S'\x07\xd8\x06\x06\x00\x197\x00\x00\x00'
p101
tp102
Rp103
sg15
g16
sg17
VVenus
p104
sg42
I2
sg19
I19
sg20
(lp105
sg22
(L3000000000L
I2000010800
I0
tp106
sg24
I3
sg26
I109
sg27
(I0
I0
I0
tp107
sg29
(lp108
sg95
I-1
sg31
I0
sg32
I6
sg96
(lp109
sg33
I2
sbsI7
g0
(g82
g5
Ntp110
Rp111
(dp112
g86
I3
sg9
I7
sg10
g11
(S'\x07\xd8\x06\x06\x00\x197\x00\x00\x00'
p113
tp114
Rp115
sg15
g16
sg17
VMars
p116
sg42
I2
sg19
I19
sg20
(lp117
sg22
(L2999977210L
I2000000000
I0
tp118
sg24
I3
sg26
I108
sg27
(I0
I0
I0
tp119
sg29
(lp120
sg95
I-1
sg31
I0
sg32
I7
sg96
(lp121
sg33
I2
sbsI8
g0
(g82
g5
Ntp122
Rp123
(dp124
g86
I1
sg9
I7
sg10
g11
(S'\x07\xd8\x06\x06\x00\x197\x00\x00\x00'
p125
tp126
Rp127
sg15
g16
sg17
VAlpha Centauri Prime
p128
sg42
I3
sg19
I19
sg20
(lp129
sg22
(I-1500006300
I1500078245
I0
tp130
sg24
I3
sg26
I124
sg27
(I0
I0
I0
tp131
sg29
(lp132
sg95
I-1
sg31
I0
sg32
I8
sg96
(lp133
sg33
I2
sbsI9
g0
(g82
g5
Ntp134
Rp135
(dp136
g86
I1
sg9
I7
sg10
g11
(S'\x07\xd8\x06\x06\x00\x197\x00\x00\x00'
p137
tp138
Rp139
sg15
g16
sg17
VSirius 1
p140
sg42
I4
sg19
I19
sg20
(lp141
sg22
(I-249954075
L-4000034262L
I0
tp142
sg24
I3
sg26
I112
sg27
(I0
I0
I0
tp143
sg29
(lp144
sg95
I-1
sg31
I0
sg32
I9
sg96
(lp145
sg33
I2
sbsI10
g0
(g47
g5
Ntp146
Rp147
(dp148
g9
I7
sg10
g11
(S'\x07\xd8\x06\x06\x00\x197\x00\x00\x00'
p149
tp150
Rp151
sg15
g16
sg17
VCentanis
p152
sg42
I1
sg19
I19
sg20
(lp153
I11
aI12
asg22
(I101000000
I533000000
I0
tp154
sg24
I2
sg26
I112
sg27
(I0
I0
I0
tp155
sg29
(lp156
sg59
I2
sg31
I0
sg32
I10
sg33
I120000
sbsI11
g0
(g82
g5
Ntp157
Rp158
(dp159
g86
I1
sg9
I7
sg10
g11
(S'\x07\xd8\x06\x06\x00\x197\x00\x00\x00'
p160
tp161
Rp162
sg15
g16
sg17
VCentanis 1
p163
sg42
I10
sg19
I19
sg20
(lp164
sg22
(I101040000
I532965000
I0
tp165
sg24
I3
sg26
I114
sg27
(I0
I0
I0
tp166
sg29
(lp167
sg95
I-1
sg31
I0
sg32
I11
sg96
(lp168
sg33
I2
sbsI12
g0
(g82
g5
Ntp169
Rp170
(dp171
g86
I2
sg9
I7
sg10
g11
(S'\x07\xd8\x06\x06\x00\x197\x00\x00\x00'
p172
tp173
Rp174
sg15
g16
sg17
VCentanis 2
p175
sg42
I10
sg19
I19
sg20
(lp176
sg22
(I101080000
I532930000
I0
tp177
sg24
I3
sg26
I114
sg27
(I0
I0
I0
tp178
sg29
(lp179
sg95
I-1
sg31
I0
sg32
I12
sg96
(lp180
sg33
I2
sbsI13
g0
(g47
g5
Ntp181
Rp182
(dp183
g9
I7
sg10
g11
(S'\x07\xd8\x06\x06\x00\x197\x00\x00\x00'
p184
tp185
Rp186
sg15
g16
sg17
VDenderis
p187
sg42
I1
sg19
I19
sg20
(lp188
I14
aI15
asg22
(L-2153000000L
I1590000000
I0
tp189
sg24
I2
sg26
I112
sg27
(I0
I0
I0
tp190
sg29
(lp191
sg59
I2
sg31
I0
sg32
I13
sg33
I120000
sbsI14
g0
(g82
g5
Ntp192
Rp193
(dp194
g86
I1
sg9
I7
sg10
g11
(S'\x07\xd8\x06\x06\x00\x197\x00\x00\x00'
p195
tp196
Rp197
sg15
g16
sg17
VDenderis 1
p198
sg42
I13
sg19
I19
sg20
(lp199
sg22
(L-2152960000L
I1589965000
I0
tp200
sg24
I3
sg26
I114
sg27
(I0
I0
I0
tp201
sg29
(lp202
sg95
I-1
sg31
I0
sg32
I14
sg96
(lp203
sg33
I2
sbsI15
g0
(g82
g5
Ntp204
Rp205
(dp206
g86
I2
sg9
I7
sg10
g11
(S'\x07\xd8\x06\x06\x00\x197\x00\x00\x00'
p207
tp208
Rp209
sg15
g16
sg17
VDenderis 2
p210
sg42
I13
sg19
I19
sg20
(lp211
sg22
(L-2152920000L
I1589930000
I0
tp212
sg24
I3
sg26
I114
sg27
(I0
I0
I0
tp213
sg29
(lp214
sg95
I-1
sg31
I0
sg32
I15
sg96
(lp215
sg33
I2
sbsI16
g0
(g47
g5
Ntp216
Rp217
(dp218
g9
I7
sg10
g11
(S'\x07\xd8\x06\x06\x00\x197\x00\x00\x00'
p219
tp220
Rp221
sg15
g16
sg17
VRedoubt
p222
sg42
I1
sg19
I19
sg20
(lp223
I17
aI18
asg22
(I-900000000
I-1913000000
I0
tp224
sg24
I2
sg26
I111
sg27
(I0
I0
I0
tp225
sg29
(lp226
sg59
I2
sg31
I0
sg32
I16
sg33
I120000
sbsI17
g0
(g82
g5
Ntp227
Rp228
(dp229
g86
I1
sg9
I7
sg10
g11
(S'\x07\xd8\x06\x06\x00\x197\x00\x00\x00'
p230
tp231
Rp232
sg15
g16
sg17
VRedoubt 1
p233
sg42
I16
sg19
I19
sg20
(lp234
sg22
(I-899960000
I-1913035000
I0
tp235
sg24
I3
sg26
I113
sg27
(I0
I0
I0
tp236
sg29
(lp237
sg95
I-1
sg31
I0
sg32
I17
sg96
(lp238
sg33
I2
sbsI18
g0
(g82
g5
Ntp239
Rp240
(dp241
g86
I2
sg9
I7
sg10
g11
(S'\x07\xd8\x06\x06\x00\x197\x00\x00\x00'
p242
tp243
Rp244
sg15
g16
sg17
VRedoubt 2
p245
sg42
I16
sg19
I19
sg20
(lp246
sg22
(I-899920000
I-1913070000
I0
tp247
sg24
I3
sg26
I113
sg27
(I0
I0
I0
tp248
sg29
(lp249
sg95
I-1
sg31
I0
sg32
I18
sg96
(lp250
sg33
I2
sbsI19
g0
(g47
g5
Ntp251
Rp252
(dp253
g9
I7
sg10
g11
(S'\x07\xd8\x06\x06\x00\x197\x00\x00\x00'
p254
tp255
Rp256
sg15
g16
sg17
VPtelemicus
p257
sg42
I1
sg19
I19
sg20
(lp258
I20
aI21
asg22
(I941000000
I-1509000000
I0
tp259
sg24
I2
sg26
I114
sg27
(I0
I0
I0
tp260
sg29
(lp261
sg59
I2
sg31
I0
sg32
I19
sg33
I120000
sbsI20
g0
(g82
g5
Ntp262
Rp263
(dp264
g86
I1
sg9
I7
sg10
g11
(S'\x07\xd8\x06\x06\x00\x197\x00\x00\x00'
p265
tp266
Rp267
sg15
g16
sg17
VPtelemicus 1
p268
sg42
I19
sg19
I19
sg20
(lp269
sg22
(I941040000
I-1509035000
I0
tp270
sg24
I3
sg26
I116
sg27
(I0
I0
I0
tp271
sg29
(lp272
sg95
I-1
sg31
I0
sg32
I20
sg96
(lp273
sg33
I2
sbsI21
g0
(g82
g5
Ntp274
Rp275
(dp276
g86
I2
sg9
I7
sg10
g11
(S'\x07\xd8\x06\x06\x00\x197\x00\x00\x00'
p277
tp278
Rp279
sg15
g16
sg17
VPtelemicus 2
p280
sg42
I19
sg19
I19
sg20
(lp281
sg22
(I941080000
I-1509070000
I0
tp282
sg24
I3
sg26
I116
sg27
(I0
I0
I0
tp283
sg29
(lp284
sg95
I-1
sg31
I0
sg32
I21
sg96
(lp285
sg33
I2
sbsI22
g0
(g47
g5
Ntp286
Rp287
(dp288
g9
I7
sg10
g11
(S'\x07\xd8\x06\x06\x00\x197\x00\x00\x00'
p289
tp290
Rp291
sg15
g16
sg17
VLlentim
p292
sg42
I1
sg19
I19
sg20
(lp293
sg22
(I-986000000
I362000000
I0
tp294
sg24
I2
sg26
I103
sg27
(I0
I0
I0
tp295
sg29
(lp296
sg31
I0
sg32
I22
sg33
I0
sbsI23
g0
(g47
g5
Ntp297
Rp298
(dp299
g9
I7
sg10
g11
(S'\x07\xd8\x06\x06\x00\x197\x00\x00\x00'
p300
tp301
Rp302
sg15
g16
sg17
VLast Chance
p303
sg42
I1
sg19
I19
sg20
(lp304
sg22
(I-1537000000
L3707000000L
I0
tp305
sg24
I2
sg26
I107
sg27
(I0
I0
I0
tp306
sg29
(lp307
sg31
I0
sg32
I23
sg33
I0
sbsI24
g0
(g47
g5
Ntp308
Rp309
(dp310
g9
I7
sg10
g11
(S'\x07\xd8\x06\x06\x00\x197\x00\x00\x00'
p311
tp312
Rp313
sg15
g16
sg17
VCeti Alpha
p314
sg42
I1
sg19
I19
sg20
(lp315
I25
aI26
asg22
(I939000000
L-3743000000L
I0
tp316
sg24
I2
sg26
I114
sg27
(I0
I0
I0
tp317
sg29
(lp318
sg59
I2
sg31
I0
sg32
I24
sg33
I120000
sbsI25
g0
(g82
g5
Ntp319
Rp320
(dp321
g86
I1
sg9
I7
sg10
g11
(S'\x07\xd8\x06\x06\x00\x197\x00\x00\x00'
p322
tp323
Rp324
sg15
g16
sg17
VCeti Alpha 1
p325
sg42
I24
sg19
I19
sg20
(lp326
sg22
(I939040000
L-3743035000L
I0
tp327
sg24
I3
sg26
I116
sg27
(I0
I0
I0
tp328
sg29
(lp329
sg95
I-1
sg31
I0
sg32
I25
sg96
(lp330
sg33
I2
sbsI26
g0
(g82
g5
Ntp331
Rp332
(dp333
g86
I2
sg9
I7
sg10
g11
(S'\x07\xd8\x06\x06\x00\x197\x00\x00\x00'
p334
tp335
Rp336
sg15
g16
sg17
VCeti Alpha 2
p337
sg42
I24
sg19
I19
sg20
(lp338
sg22
(I939080000
L-3743070000L
I0
tp339
sg24
I3
sg26
I116
sg27
(I0
I0
I0
tp340
sg29
(lp341
sg95
I-1
sg31
I0
sg32
I26
sg96
(lp342
sg33
I2
sbsI27
g0
(g47
g5
Ntp343
Rp344
(dp345
g9
I7
sg10
g11
(S'\x07\xd8\x06\x06\x00\x197\x00\x00\x00'
p346
tp347
Rp348
sg15
g16
sg17
VClesasia
p349
sg42
I1
sg19
I19
sg20
(lp350
I28
asg22
(I-1620000000
I1091000000
I0
tp351
sg24
I2
sg26
I108
sg27
(I0
I0
I0
tp352
sg29
(lp353
sg59
I1
sg31
I0
sg32
I27
sg33
I60000
sbsI28
g0
(g82
g5
Ntp354
Rp355
(dp356
g86
I1
sg9
I7
sg10
g11
(S'\x07\xd8\x06\x06\x00\x197\x00\x00\x00'
p357
tp358
Rp359
sg15
g16
sg17
VClesasia 1
p360
sg42
I27
sg19
I19
sg20
(lp361
sg22
(I-1619960000
I1090965000
I0
tp362
sg24
I3
sg26
I114
sg27
(I0
I0
I0
tp363
sg29
(lp364
sg95
I-1
sg31
I0
sg32
I28
sg96
(lp365
sg33
I2
sbsI29
g0
(g47
g5
Ntp366
Rp367
(dp368
g9
I7
sg10
g11
(S'\x07\xd8\x06\x06\x00\x197\x00\x00\x00'
p369
tp370
Rp371
sg15
g16
sg17
VSagitaria
p372
sg42
I1
sg19
I19
sg20
(lp373
sg22
(L3058000000L
L-3427000000L
I0
tp374
sg24
I2
sg26
I105
sg27
(I0
I0
I0
tp375
sg29
(lp376
sg31
I0
sg32
I29
sg33
I0
sbsI30
g0
(g47
g5
Ntp377
Rp378
(dp379
g9
I7
sg10
g11
(S'\x07\xd8\x06\x06\x00\x197\x00\x00\x00'
p380
tp381
Rp382
sg15
g16
sg17
VAtlantis
p383
sg42
I1
sg19
I19
sg20
(lp384
I31
aI32
asg22
(I779000000
I1474000000
I0
tp385
sg24
I2
sg26
I112
sg27
(I0
I0
I0
tp386
sg29
(lp387
sg59
I2
sg31
I0
sg32
I30
sg33
I120000
sbsI31
g0
(g82
g5
Ntp388
Rp389
(dp390
g86
I1
sg9
I7
sg10
g11
(S'\x07\xd8\x06\x06\x00\x197\x00\x00\x00'
p391
tp392
Rp393
sg15
g16
sg17
VAtlantis 1
p394
sg42
I30
sg19
I19
sg20
(lp395
sg22
(I779040000
I1473965000
I0
tp396
sg24
I3
sg26
I114
sg27
(I0
I0
I0
tp397
sg29
(lp398
sg95
I-1
sg31
I0
sg32
I31
sg96
(lp399
sg33
I2
sbsI32
g0
(g82
g5
Ntp400
Rp401
(dp402
g86
I2
sg9
I7
sg10
g11
(S'\x07\xd8\x06\x06\x00\x197\x00\x00\x00'
p403
tp404
Rp405
sg15
g16
sg17
VAtlantis 2
p406
sg42
I30
sg19
I19
sg20
(lp407
sg22
(I779080000
I1473930000
I0
tp408
sg24
I3
sg26
I114
sg27
(I0
I0
I0
tp409
sg29
(lp410
sg95
I-1
sg31
I0
sg32
I32
sg96
(lp411
sg33
I2
sbsI33
g0
(g47
g5
Ntp412
Rp413
(dp414
g9
I7
sg10
g11
(S'\x07\xd8\x06\x06\x00\x197\x00\x00\x00'
p415
tp416
Rp417
sg15
g16
sg17
VWetcher
p418
sg42
I1
sg19
I19
sg20
(lp419
I34
asg22
(L3956000000L
L-3101000000L
I0
tp420
sg24
I2
sg26
I107
sg27
(I0
I0
I0
tp421
sg29
(lp422
sg59
I1
sg31
I0
sg32
I33
sg33
I60000
sbsI34
g0
(g82
g5
Ntp423
Rp424
(dp425
g86
I1
sg9
I7
sg10
g11
(S'\x07\xd8\x06\x06\x00\x197\x00\x00\x00'
p426
tp427
Rp428
sg15
g16
sg17
VWetcher 1
p429
sg42
I33
sg19
I19
sg20
(lp430
sg22
(L3956040000L
L-3101035000L
I0
tp431
sg24
I3
sg26
I113
sg27
(I0
I0
I0
tp432
sg29
(lp433
sg95
I-1
sg31
I0
sg32
I34
sg96
(lp434
sg33
I2
sbsI35
g0
(g47
g5
Ntp435
Rp436
(dp437
g9
I7
sg10
g11
(S'\x07\xd8\x06\x06\x00\x197\x00\x00\x00'
p438
tp439
Rp440
sg15
g16
sg17
VAleph Prime
p441
sg42
I1
sg19
I19
sg20
(lp442
I36
asg22
(L-3168000000L
I-1827000000
I0
tp443
sg24
I2
sg26
I111
sg27
(I0
I0
I0
tp444
sg29
(lp445
sg59
I1
sg31
I0
sg32
I35
sg33
I60000
sbsI36
g0
(g82
g5
Ntp446
Rp447
(dp448
g86
I1
sg9
I7
sg10
g11
(S'\x07\xd8\x06\x06\x00\x197\x00\x00\x00'
p449
tp450
Rp451
sg15
g16
sg17
VAleph Prime 1
p452
sg42
I35
sg19
I19
sg20
(lp453
sg22
(L-3167960000L
I-1827035000
I0
tp454
sg24
I3
sg26
I117
sg27
(I0
I0
I0
tp455
sg29
(lp456
sg95
I-1
sg31
I0
sg32
I36
sg96
(lp457
sg33
I2
sbsI37
g0
(g47
g5
Ntp458
Rp459
(dp460
S'fleets'
p461
I3
sg9
I7
sg10
g11
(S'\x07\xd8\x06\x06\x00\x197\x00\x00\x00'
p462
tp463
Rp464
sg15
g16
sg17
Vtest Star System
p465
sg42
I1
sg19
I19
sg20
(lp466
I38
aI39
aI40
aI41
asg22
(I1989869184
I-574771072
I0
tp467
sg24
I2
sg26
I128
sg27
(I0
I0
I0
tp468
sg29
(lp469
sg59
I1
sg31
I0
sg32
I37
sg33
I80000
sbsI38
g0
(g82
g5
Ntp470
Rp471
(dp472
g86
I1
sg9
I7
sg10
g11
(S'\x07\xd8\x06\x06\x00"\x08\x00\x00\x00'
p473
tp474
Rp475
sg15
g16
sg17
Vtest Planet
p476
sg42
I37
sg19
I19
sg461
I1
sg20
(lp477
I48
asg22
(I1989871084
I-574755492
I0
tp478
sg24
I3
sg26
I159
sg27
(I0
I0
I0
tp479
sg29
(lp480
I0
aI2
asg95
I2
sg31
I0
sg32
I38
sg96
(lp481
(I1
I0
I0
I0
tp482
a(I2
I1
I0
I0
tp483
asg33
I2
sbsI39
g0
(ctp.netlib.objects.ObjectExtra.Fleet
Fleet
p484
g5
Ntp485
Rp486
(dp487
g86
I1
sg9
I7
sg10
g11
(S'\x07\xd8\x06\x06\x00"\x08\x00\x00\x00'
p488
tp489
Rp490
sg15
g16
sg17
Vtest First Fleet
p491
sg42
I37
sg19
I19
sg20
(lp492
sS'ships'
p493
(lp494
(I2
I1
tp495
asg22
(I1989865554
I-574797022
I0
tp496
sg24
I4
sg26
I152
sg27
(I0
I0
I0
tp497
sg29
(lp498
I0
aI1
aI3
aI4
aI5
asg95
I2
sS'damage'
p499
I0
sg31
I0
sg32
I39
sg33
I2
sbsI40
g0
(g484
g5
Ntp500
Rp501
(dp502
g86
I2
sg9
I7
sg10
g11
(S'\x07\xd8\x06\x06\x00"\x08\x00\x00\x00'
p503
tp504
Rp505
sg15
g16
sg17
Vtest Second Fleet
p506
sg42
I37
sg19
I19
sg20
(lp507
sg493
(lp508
(I2
I1
tp509
asg22
(I1989916164
I-574755402
I0
tp510
sg24
I4
sg26
I153
sg27
(I0
I0
I0
tp511
sg29
(lp512
I0
aI1
aI3
aI4
aI5
asg95
I2
sg499
I0
sg31
I0
sg32
I40
sg33
I2
sbsI41
g0
(g484
g5
Ntp513
Rp514
(dp515
g86
I3
sg9
I7
sg10
g11
(S'\x07\xd8\x06\x06\x00"\x08\x00\x00\x00'
p516
tp517
Rp518
sg15
g16
sg17
Vtest Thrid Fleet
p519
sg42
I37
sg19
I19
sg20
(lp520
sg493
(lp521
(I2
I1
tp522
asg22
(I1989852724
I-574766962
I0
tp523
sg24
I4
sg26
I152
sg27
(I0
I0
I0
tp524
sg29
(lp525
I0
aI1
aI3
aI4
aI5
asg95
I2
sg499
I0
sg31
I0
sg32
I41
sg33
I2
sbsI42
g0
(g47
g5
Ntp526
Rp527
(dp528
g461
I3
sg9
I7
sg10
g11
(S'\x07\xd8\x06\x06\x00\x1f\x08\x00\x00\x00'
p529
tp530
Rp531
sg15
g16
sg17
Vjmtan Star System
p532
sg42
I1
sg19
I19
sg20
(lp533
I43
aI44
aI45
aI46
asg22
(I1154771072
I-1069869184
I0
tp534
sg24
I2
sg26
I129
sg27
(I0
I0
I0
tp535
sg29
(lp536
sg59
I1
sg31
I0
sg32
I42
sg33
I80000
sbsI43
g0
(g82
g5
Ntp537
Rp538
(dp539
g86
I1
sg9
I7
sg10
g11
(S'\x07\xd8\x06\x06\x00\x1f\x08\x00\x00\x00'
p540
tp541
Rp542
sg15
g16
sg17
Vjmtan Planet
p543
sg42
I42
sg19
I19
sg461
I1
sg20
(lp544
I47
asg22
(I1154767202
I-1069860844
I0
tp545
sg24
I3
sg26
I152
sg27
(I0
I0
I0
tp546
sg29
(lp547
sg95
I3
sg31
I0
sg32
I43
sg96
(lp548
(I1
I0
I0
I0
tp549
a(I2
I1
I0
I0
tp550
asg33
I2
sbsI44
g0
(g484
g5
Ntp551
Rp552
(dp553
g86
I1
sg9
I7
sg10
g11
(S'\x07\xd8\x06\x06\x00"\x08\x00\x00\x00'
p554
tp555
Rp556
sg15
g16
sg17
Vjmtan First Fleet
p557
sg42
I42
sg19
I19
sg20
(lp558
sg493
(lp559
(I5
I1
tp560
asg22
(I1154762772
I-1069875014
I0
tp561
sg24
I4
sg26
I133
sg27
(I0
I0
I0
tp562
sg29
(lp563
sg95
I3
sg499
I0
sg31
I0
sg32
I44
sg33
I2
sbsI45
g0
(g484
g5
Ntp564
Rp565
(dp566
g86
I2
sg9
I7
sg10
g11
(S'\x07\xd8\x06\x06\x00"\x08\x00\x00\x00'
p567
tp568
Rp569
sg15
g16
sg17
Vjmtan Second Fleet
p570
sg42
I42
sg19
I19
sg20
(lp571
sg493
(lp572
(I5
I1
tp573
asg22
(I1154789142
I-1069821054
I0
tp574
sg24
I4
sg26
I134
sg27
(I0
I0
I0
tp575
sg29
(lp576
sg95
I3
sg499
I0
sg31
I0
sg32
I45
sg33
I2
sbsI46
g0
(g484
g5
Ntp577
Rp578
(dp579
g86
I3
sg9
I7
sg10
g11
(S'\x07\xd8\x06\x06\x00"\x08\x00\x00\x00'
p580
tp581
Rp582
sg15
g16
sg17
Vjmtan Thrid Fleet
p583
sg42
I42
sg19
I19
sg20
(lp584
sg493
(lp585
(I5
I1
tp586
asg22
(I1154769772
I-1069890114
I0
tp587
sg24
I4
sg26
I133
sg27
(I0
I0
I0
tp588
sg29
(lp589
sg95
I3
sg499
I0
sg31
I0
sg32
I46
sg33
I2
sbsI47
g0
(g484
g5
Ntp590
Rp591
(dp592
g86
I1
sg9
I7
sg10
g11
(S'\x07\xd8\x06\x06\x00"\x08\x00\x00\x00'
p593
tp594
Rp595
sg15
g16
sg17
VA Fleet
p596
sg42
I43
sg19
I19
sg20
(lp597
sg493
(lp598
(I4
I1
tp599
asg22
(I1154767202
I-1069860844
I0
tp600
sg24
I4
sg26
I123
sg27
(I0
I0
I0
tp601
sg29
(lp602
sg95
I3
sg499
I0
sg31
I0
sg32
I47
sg33
I2
sbsI48
g0
(g484
g5
Ntp603
Rp604
(dp605
g86
I1
sg9
I7
sg10
g11
(S'\x07\xd8\x06\x06\x00"\x08\x00\x00\x00'
p606
tp607
Rp608
sg15
g16
sg17
VA Fleet
p609
sg42
I38
sg19
I19
sg20
(lp610
sg493
(lp611
(I3
I1
tp612
asg22
(I1989871084
I-574755492
I0
tp613
sg24
I4
sg26
I139
sg27
(I0
I0
I0
tp614
sg29
(lp615
I0
aI1
aI4
aI5
asg95
I2
sg499
I0
sg31
I0
sg32
I48
sg33
I2
sbstp616
Rp617
(dp618
S'times'
p619
(dp620
I0
g14
sI1
g40
sI2
g53
sI3
g65
sI4
g76
sI5
g89
sI6
g103
sI7
g115
sI8
g127
sI9
g139
sI10
g151
sI11
g162
sI12
g174
sI13
g186
sI14
g197
sI15
g209
sI16
g221
sI17
g232
sI18
g244
sI19
g256
sI20
g267
sI21
g279
sI22
g291
sI23
g302
sI24
g313
sI25
g324
sI26
g336
sI27
g348
sI28
g359
sI29
g371
sI30
g382
sI31
g393
sI32
g405
sI33
g417
sI34
g428
sI35
g440
sI36
g451
sI37
g464
sI38
g475
sI39
g490
sI40
g505
sI41
g518
sI42
g531
sI43
g542
sI44
g556
sI45
g569
sI46
g582
sI47
g595
sI48
g608
ssb.