ccopy_reg
_reconstructor
p0
(ctp.client.ChangeDict
ChangeDict
p1
c__builtin__
dict
p2
(dp3
I0
g0
(ctp.netlib.objects.ObjectExtra.Universe
Universe
p4
c__builtin__
object
p5
Ntp6
Rp7
(dp8
S'_type'
p9
I7
sS'modify_time'
p10
cdatetime
datetime
p11
(S'\x07\xd8\x06\x04\x16*6\x00\x00\x00'
p12
tp13
Rp14
sS'protocol'
p15
S'TP03'
p16
sS'name'
p17
VThe Universe
p18
sS'sequence'
p19
I19
sS'contains'
p20
(lp21
I1
asS'pos'
p22
(I0
I0
I0
tp23
sS'_subtype'
p24
I0
sS'turn'
p25
I0
sS'length'
p26
I116
sS'vel'
p27
(I0
I0
I0
tp28
sS'order_types'
p29
(lp30
sS'order_number'
p31
I0
sS'id'
p32
I0
sS'size'
p33
L1000000000000L
sbsI1
g0
(ctp.netlib.objects.ObjectExtra.Galaxy
Galaxy
p34
g5
Ntp35
Rp36
(dp37
g9
I7
sg10
g11
(S'\x07\xd8\x06\x04\x16*6\x00\x00\x00'
p38
tp39
Rp40
sg15
g16
sg17
VMilky Way Galaxy
p41
sS'parent'
p42
I0
sg19
I19
sg20
(lp43
I2
aI3
aI4
aI10
aI11
aI13
aI14
aI16
aI17
aI18
aI20
aI23
aI25
aI26
aI28
aI30
aI32
aI33
aI34
aI37
aI40
aI42
asg22
(I0
I-6000
I0
tp44
sg24
I1
sg26
I200
sg27
(I0
I0
I0
tp45
sg29
(lp46
sg31
I0
sg32
I1
sg33
L100000000000L
sbsI2
g0
(ctp.netlib.objects.ObjectExtra.StarSystem
StarSystem
p47
g5
Ntp48
Rp49
(dp50
g9
I7
sg10
g11
(S'\x07\xd8\x06\x04\x16*6\x00\x00\x00'
p51
tp52
Rp53
sg15
g16
sg17
VSol/Terra System
p54
sg42
I1
sg19
I19
sg20
(lp55
I5
aI6
aI7
asg22
(L3000000000L
I2000000000
I0
tp56
sg24
I2
sg26
I124
sg27
(I0
I0
I0
tp57
sg29
(lp58
sS'planets'
p59
I3
sg31
I0
sg32
I2
sg33
I60000
sbsI3
g0
(g47
g5
Ntp60
Rp61
(dp62
g9
I7
sg10
g11
(S'\x07\xd8\x06\x04\x16*6\x00\x00\x00'
p63
tp64
Rp65
sg15
g16
sg17
VAlpha Centauri System
p66
sg42
I1
sg19
I19
sg20
(lp67
I8
asg22
(I-1500000000
I1500000000
I0
tp68
sg24
I2
sg26
I121
sg27
(I0
I0
I0
tp69
sg29
(lp70
sg59
I1
sg31
I0
sg32
I3
sg33
I90000
sbsI4
g0
(g47
g5
Ntp71
Rp72
(dp73
g9
I7
sg10
g11
(S'\x07\xd8\x06\x04\x16*6\x00\x00\x00'
p74
tp75
Rp76
sg15
g16
sg17
VSirius System
p77
sg42
I1
sg19
I19
sg20
(lp78
I9
asg22
(I-250000000
L-4000000000L
I0
tp79
sg24
I2
sg26
I113
sg27
(I0
I0
I0
tp80
sg29
(lp81
sg59
I1
sg31
I0
sg32
I4
sg33
I60000
sbsI5
g0
(ctp.netlib.objects.ObjectExtra.Planet
Planet
p82
g5
Ntp83
Rp84
(dp85
S'index'
p86
I1
sg9
I7
sg10
g11
(S'\x07\xd8\x06\x04\x16*6\x00\x00\x00'
p87
tp88
Rp89
sg15
g16
sg17
VEarth/Terra
p90
sg42
I2
sg19
I19
sg20
(lp91
sg22
(L3000014960L
I2000000000
I0
tp92
sg24
I3
sg26
I115
sg27
(I0
I0
I0
tp93
sg29
(lp94
sS'owner'
p95
I-1
sg31
I0
sg32
I5
sS'resources'
p96
(lp97
sg33
I2
sbsI6
g0
(g82
g5
Ntp98
Rp99
(dp100
g86
I2
sg9
I7
sg10
g11
(S'\x07\xd8\x06\x04\x16*6\x00\x00\x00'
p101
tp102
Rp103
sg15
g16
sg17
VVenus
p104
sg42
I2
sg19
I19
sg20
(lp105
sg22
(L3000000000L
I2000010800
I0
tp106
sg24
I3
sg26
I109
sg27
(I0
I0
I0
tp107
sg29
(lp108
sg95
I-1
sg31
I0
sg32
I6
sg96
(lp109
sg33
I2
sbsI7
g0
(g82
g5
Ntp110
Rp111
(dp112
g86
I3
sg9
I7
sg10
g11
(S'\x07\xd8\x06\x04\x16*6\x00\x00\x00'
p113
tp114
Rp115
sg15
g16
sg17
VMars
p116
sg42
I2
sg19
I19
sg20
(lp117
sg22
(L2999977210L
I2000000000
I0
tp118
sg24
I3
sg26
I108
sg27
(I0
I0
I0
tp119
sg29
(lp120
sg95
I-1
sg31
I0
sg32
I7
sg96
(lp121
sg33
I2
sbsI8
g0
(g82
g5
Ntp122
Rp123
(dp124
g86
I1
sg9
I7
sg10
g11
(S'\x07\xd8\x06\x04\x16*6\x00\x00\x00'
p125
tp126
Rp127
sg15
g16
sg17
VAlpha Centauri Prime
p128
sg42
I3
sg19
I19
sg20
(lp129
sg22
(I-1500006300
I1500078245
I0
tp130
sg24
I3
sg26
I124
sg27
(I0
I0
I0
tp131
sg29
(lp132
sg95
I-1
sg31
I0
sg32
I8
sg96
(lp133
sg33
I2
sbsI9
g0
(g82
g5
Ntp134
Rp135
(dp136
g86
I1
sg9
I7
sg10
g11
(S'\x07\xd8\x06\x04\x16*6\x00\x00\x00'
p137
tp138
Rp139
sg15
g16
sg17
VSirius 1
p140
sg42
I4
sg19
I19
sg20
(lp141
sg22
(I-249954075
L-4000034262L
I0
tp142
sg24
I3
sg26
I112
sg27
(I0
I0
I0
tp143
sg29
(lp144
sg95
I-1
sg31
I0
sg32
I9
sg96
(lp145
sg33
I2
sbsI10
g0
(g47
g5
Ntp146
Rp147
(dp148
g9
I7
sg10
g11
(S'\x07\xd8\x06\x04\x16*6\x00\x00\x00'
p149
tp150
Rp151
sg15
g16
sg17
VFools Errand
p152
sg42
I1
sg19
I19
sg20
(lp153
sg22
(I1593000000
L3776000000L
I0
tp154
sg24
I2
sg26
I108
sg27
(I0
I0
I0
tp155
sg29
(lp156
sg31
I0
sg32
I10
sg33
I0
sbsI11
g0
(g47
g5
Ntp157
Rp158
(dp159
g9
I7
sg10
g11
(S'\x07\xd8\x06\x04\x16*6\x00\x00\x00'
p160
tp161
Rp162
sg15
g16
sg17
VIvemteris
p163
sg42
I1
sg19
I19
sg20
(lp164
I12
asg22
(L3976000000L
L3099000000L
I0
tp165
sg24
I2
sg26
I109
sg27
(I0
I0
I0
tp166
sg29
(lp167
sg59
I1
sg31
I0
sg32
I11
sg33
I60000
sbsI12
g0
(g82
g5
Ntp168
Rp169
(dp170
g86
I1
sg9
I7
sg10
g11
(S'\x07\xd8\x06\x04\x16*6\x00\x00\x00'
p171
tp172
Rp173
sg15
g16
sg17
VIvemteris 1
p174
sg42
I11
sg19
I19
sg20
(lp175
sg22
(L3976040000L
L3098965000L
I0
tp176
sg24
I3
sg26
I115
sg27
(I0
I0
I0
tp177
sg29
(lp178
sg95
I-1
sg31
I0
sg32
I12
sg96
(lp179
sg33
I2
sbsI13
g0
(g47
g5
Ntp180
Rp181
(dp182
g9
I7
sg10
g11
(S'\x07\xd8\x06\x04\x16*6\x00\x00\x00'
p183
tp184
Rp185
sg15
g16
sg17
VMendelis
p186
sg42
I1
sg19
I19
sg20
(lp187
sg22
(I446000000
I-973000000
I0
tp188
sg24
I2
sg26
I104
sg27
(I0
I0
I0
tp189
sg29
(lp190
sg31
I0
sg32
I13
sg33
I0
sbsI14
g0
(g47
g5
Ntp191
Rp192
(dp193
g9
I7
sg10
g11
(S'\x07\xd8\x06\x04\x16*6\x00\x00\x00'
p194
tp195
Rp196
sg15
g16
sg17
VCeti Alpha
p197
sg42
I1
sg19
I19
sg20
(lp198
I15
asg22
(L-2717000000L
L-2327000000L
I0
tp199
sg24
I2
sg26
I110
sg27
(I0
I0
I0
tp200
sg29
(lp201
sg59
I1
sg31
I0
sg32
I14
sg33
I60000
sbsI15
g0
(g82
g5
Ntp202
Rp203
(dp204
g86
I1
sg9
I7
sg10
g11
(S'\x07\xd8\x06\x04\x16*6\x00\x00\x00'
p205
tp206
Rp207
sg15
g16
sg17
VCeti Alpha 1
p208
sg42
I14
sg19
I19
sg20
(lp209
sg22
(L-2716960000L
L-2327035000L
I0
tp210
sg24
I3
sg26
I116
sg27
(I0
I0
I0
tp211
sg29
(lp212
sg95
I-1
sg31
I0
sg32
I15
sg96
(lp213
sg33
I2
sbsI16
g0
(g47
g5
Ntp214
Rp215
(dp216
g9
I7
sg10
g11
(S'\x07\xd8\x06\x04\x16*6\x00\x00\x00'
p217
tp218
Rp219
sg15
g16
sg17
VDrifter
p220
sg42
I1
sg19
I19
sg20
(lp221
sg22
(L-3748000000L
L-3875000000L
I0
tp222
sg24
I2
sg26
I103
sg27
(I0
I0
I0
tp223
sg29
(lp224
sg31
I0
sg32
I16
sg33
I0
sbsI17
g0
(g47
g5
Ntp225
Rp226
(dp227
g9
I7
sg10
g11
(S'\x07\xd8\x06\x04\x16*6\x00\x00\x00'
p228
tp229
Rp230
sg15
g16
sg17
VIllatis
p231
sg42
I1
sg19
I19
sg20
(lp232
sg22
(I-1831000000
L-3042000000L
I0
tp233
sg24
I2
sg26
I103
sg27
(I0
I0
I0
tp234
sg29
(lp235
sg31
I0
sg32
I17
sg33
I0
sbsI18
g0
(g47
g5
Ntp236
Rp237
(dp238
g9
I7
sg10
g11
(S'\x07\xd8\x06\x04\x16*6\x00\x00\x00'
p239
tp240
Rp241
sg15
g16
sg17
VGielgud
p242
sg42
I1
sg19
I19
sg20
(lp243
I19
asg22
(I-968000000
L-3594000000L
I0
tp244
sg24
I2
sg26
I107
sg27
(I0
I0
I0
tp245
sg29
(lp246
sg59
I1
sg31
I0
sg32
I18
sg33
I60000
sbsI19
g0
(g82
g5
Ntp247
Rp248
(dp249
g86
I1
sg9
I7
sg10
g11
(S'\x07\xd8\x06\x04\x16*6\x00\x00\x00'
p250
tp251
Rp252
sg15
g16
sg17
VGielgud 1
p253
sg42
I18
sg19
I19
sg20
(lp254
sg22
(I-967960000
L-3594035000L
I0
tp255
sg24
I3
sg26
I113
sg27
(I0
I0
I0
tp256
sg29
(lp257
sg95
I-1
sg31
I0
sg32
I19
sg96
(lp258
sg33
I2
sbsI20
g0
(g47
g5
Ntp259
Rp260
(dp261
g9
I7
sg10
g11
(S'\x07\xd8\x06\x04\x16*6\x00\x00\x00'
p262
tp263
Rp264
sg15
g16
sg17
VCilantarius
p265
sg42
I1
sg19
I19
sg20
(lp266
I21
aI22
asg22
(I-933000000
I607000000
I0
tp267
sg24
I2
sg26
I115
sg27
(I0
I0
I0
tp268
sg29
(lp269
sg59
I2
sg31
I0
sg32
I20
sg33
I120000
sbsI21
g0
(g82
g5
Ntp270
Rp271
(dp272
g86
I1
sg9
I7
sg10
g11
(S'\x07\xd8\x06\x04\x16*6\x00\x00\x00'
p273
tp274
Rp275
sg15
g16
sg17
VCilantarius 1
p276
sg42
I20
sg19
I19
sg20
(lp277
sg22
(I-932960000
I606965000
I0
tp278
sg24
I3
sg26
I117
sg27
(I0
I0
I0
tp279
sg29
(lp280
sg95
I-1
sg31
I0
sg32
I21
sg96
(lp281
sg33
I2
sbsI22
g0
(g82
g5
Ntp282
Rp283
(dp284
g86
I2
sg9
I7
sg10
g11
(S'\x07\xd8\x06\x04\x16*6\x00\x00\x00'
p285
tp286
Rp287
sg15
g16
sg17
VCilantarius 2
p288
sg42
I20
sg19
I19
sg20
(lp289
sg22
(I-932920000
I606930000
I0
tp290
sg24
I3
sg26
I117
sg27
(I0
I0
I0
tp291
sg29
(lp292
sg95
I-1
sg31
I0
sg32
I22
sg96
(lp293
sg33
I2
sbsI23
g0
(g47
g5
Ntp294
Rp295
(dp296
g9
I7
sg10
g11
(S'\x07\xd8\x06\x04\x16*6\x00\x00\x00'
p297
tp298
Rp299
sg15
g16
sg17
VKiuper Shadow
p300
sg42
I1
sg19
I19
sg20
(lp301
I24
asg22
(L-3354000000L
I156000000
I0
tp302
sg24
I2
sg26
I113
sg27
(I0
I0
I0
tp303
sg29
(lp304
sg59
I1
sg31
I0
sg32
I23
sg33
I60000
sbsI24
g0
(g82
g5
Ntp305
Rp306
(dp307
g86
I1
sg9
I7
sg10
g11
(S'\x07\xd8\x06\x04\x16*6\x00\x00\x00'
p308
tp309
Rp310
sg15
g16
sg17
VKiuper Shadow 1
p311
sg42
I23
sg19
I19
sg20
(lp312
sg22
(L-3353960000L
I155965000
I0
tp313
sg24
I3
sg26
I119
sg27
(I0
I0
I0
tp314
sg29
(lp315
sg95
I-1
sg31
I0
sg32
I24
sg96
(lp316
sg33
I2
sbsI25
g0
(g47
g5
Ntp317
Rp318
(dp319
g9
I7
sg10
g11
(S'\x07\xd8\x06\x04\x16*6\x00\x00\x00'
p320
tp321
Rp322
sg15
g16
sg17
VVentana
p323
sg42
I1
sg19
I19
sg20
(lp324
sg22
(I-215000000
L-2951000000L
I0
tp325
sg24
I2
sg26
I103
sg27
(I0
I0
I0
tp326
sg29
(lp327
sg31
I0
sg32
I25
sg33
I0
sbsI26
g0
(g47
g5
Ntp328
Rp329
(dp330
g9
I7
sg10
g11
(S'\x07\xd8\x06\x04\x16*6\x00\x00\x00'
p331
tp332
Rp333
sg15
g16
sg17
VKya
p334
sg42
I1
sg19
I19
sg20
(lp335
I27
asg22
(I2132000000
I1230000000
I0
tp336
sg24
I2
sg26
I103
sg27
(I0
I0
I0
tp337
sg29
(lp338
sg59
I1
sg31
I0
sg32
I26
sg33
I60000
sbsI27
g0
(g82
g5
Ntp339
Rp340
(dp341
g86
I1
sg9
I7
sg10
g11
(S'\x07\xd8\x06\x04\x16*6\x00\x00\x00'
p342
tp343
Rp344
sg15
g16
sg17
VKya 1
p345
sg42
I26
sg19
I19
sg20
(lp346
sg22
(I2132040000
I1229965000
I0
tp347
sg24
I3
sg26
I109
sg27
(I0
I0
I0
tp348
sg29
(lp349
sg95
I-1
sg31
I0
sg32
I27
sg96
(lp350
sg33
I2
sbsI28
g0
(g47
g5
Ntp351
Rp352
(dp353
g9
I7
sg10
g11
(S'\x07\xd8\x06\x04\x16*6\x00\x00\x00'
p354
tp355
Rp356
sg15
g16
sg17
VUvaharim
p357
sg42
I1
sg19
I19
sg20
(lp358
I29
asg22
(L-3509000000L
L-3648000000L
I0
tp359
sg24
I2
sg26
I108
sg27
(I0
I0
I0
tp360
sg29
(lp361
sg59
I1
sg31
I0
sg32
I28
sg33
I60000
sbsI29
g0
(g82
g5
Ntp362
Rp363
(dp364
g86
I1
sg9
I7
sg10
g11
(S'\x07\xd8\x06\x04\x16*6\x00\x00\x00'
p365
tp366
Rp367
sg15
g16
sg17
VUvaharim 1
p368
sg42
I28
sg19
I19
sg20
(lp369
sg22
(L-3508960000L
L-3648035000L
I0
tp370
sg24
I3
sg26
I114
sg27
(I0
I0
I0
tp371
sg29
(lp372
sg95
I-1
sg31
I0
sg32
I29
sg96
(lp373
sg33
I2
sbsI30
g0
(g47
g5
Ntp374
Rp375
(dp376
g9
I7
sg10
g11
(S'\x07\xd8\x06\x04\x16*6\x00\x00\x00'
p377
tp378
Rp379
sg15
g16
sg17
VRedoubt
p380
sg42
I1
sg19
I19
sg20
(lp381
I31
asg22
(I1647000000
L-2885000000L
I0
tp382
sg24
I2
sg26
I107
sg27
(I0
I0
I0
tp383
sg29
(lp384
sg59
I1
sg31
I0
sg32
I30
sg33
I60000
sbsI31
g0
(g82
g5
Ntp385
Rp386
(dp387
g86
I1
sg9
I7
sg10
g11
(S'\x07\xd8\x06\x04\x16*6\x00\x00\x00'
p388
tp389
Rp390
sg15
g16
sg17
VRedoubt 1
p391
sg42
I30
sg19
I19
sg20
(lp392
sg22
(I1647040000
L-2885035000L
I0
tp393
sg24
I3
sg26
I113
sg27
(I0
I0
I0
tp394
sg29
(lp395
sg95
I-1
sg31
I0
sg32
I31
sg96
(lp396
sg33
I2
sbsI32
g0
(g47
g5
Ntp397
Rp398
(dp399
g9
I7
sg10
g11
(S'\x07\xd8\x06\x04\x16*6\x00\x00\x00'
p400
tp401
Rp402
sg15
g16
sg17
VPlaetais
p403
sg42
I1
sg19
I19
sg20
(lp404
sg22
(I701000000
L-2475000000L
I0
tp405
sg24
I2
sg26
I104
sg27
(I0
I0
I0
tp406
sg29
(lp407
sg31
I0
sg32
I32
sg33
I0
sbsI33
g0
(g47
g5
Ntp408
Rp409
(dp410
g9
I7
sg10
g11
(S'\x07\xd8\x06\x04\x16*6\x00\x00\x00'
p411
tp412
Rp413
sg15
g16
sg17
VSurreptitious
p414
sg42
I1
sg19
I19
sg20
(lp415
sg22
(L-2199000000L
I-1456000000
I0
tp416
sg24
I2
sg26
I109
sg27
(I0
I0
I0
tp417
sg29
(lp418
sg31
I0
sg32
I33
sg33
I0
sbsI34
g0
(g47
g5
Ntp419
Rp420
(dp421
g9
I7
sg10
g11
(S'\x07\xd8\x06\x04\x16*6\x00\x00\x00'
p422
tp423
Rp424
sg15
g16
sg17
VVentil
p425
sg42
I1
sg19
I19
sg20
(lp426
I35
aI36
asg22
(I1413000000
I-1937000000
I0
tp427
sg24
I2
sg26
I110
sg27
(I0
I0
I0
tp428
sg29
(lp429
sg59
I2
sg31
I0
sg32
I34
sg33
I120000
sbsI35
g0
(g82
g5
Ntp430
Rp431
(dp432
g86
I1
sg9
I7
sg10
g11
(S'\x07\xd8\x06\x04\x16*6\x00\x00\x00'
p433
tp434
Rp435
sg15
g16
sg17
VVentil 1
p436
sg42
I34
sg19
I19
sg20
(lp437
sg22
(I1413040000
I-1937035000
I0
tp438
sg24
I3
sg26
I112
sg27
(I0
I0
I0
tp439
sg29
(lp440
sg95
I-1
sg31
I0
sg32
I35
sg96
(lp441
sg33
I2
sbsI36
g0
(g82
g5
Ntp442
Rp443
(dp444
g86
I2
sg9
I7
sg10
g11
(S'\x07\xd8\x06\x04\x16*6\x00\x00\x00'
p445
tp446
Rp447
sg15
g16
sg17
VVentil 2
p448
sg42
I34
sg19
I19
sg20
(lp449
sg22
(I1413080000
I-1937070000
I0
tp450
sg24
I3
sg26
I112
sg27
(I0
I0
I0
tp451
sg29
(lp452
sg95
I-1
sg31
I0
sg32
I36
sg96
(lp453
sg33
I2
sbsI37
g0
(g47
g5
Ntp454
Rp455
(dp456
g9
I7
sg10
g11
(S'\x07\xd8\x06\x04\x16*6\x00\x00\x00'
p457
tp458
Rp459
sg15
g16
sg17
VNGC 42059
p460
sg42
I1
sg19
I19
sg20
(lp461
I38
aI39
asg22
(L-3656000000L
I308000000
I0
tp462
sg24
I2
sg26
I113
sg27
(I0
I0
I0
tp463
sg29
(lp464
sg59
I2
sg31
I0
sg32
I37
sg33
I120000
sbsI38
g0
(g82
g5
Ntp465
Rp466
(dp467
g86
I1
sg9
I7
sg10
g11
(S'\x07\xd8\x06\x04\x16*6\x00\x00\x00'
p468
tp469
Rp470
sg15
g16
sg17
VNGC 42059 1
p471
sg42
I37
sg19
I19
sg20
(lp472
sg22
(L-3655960000L
I307965000
I0
tp473
sg24
I3
sg26
I115
sg27
(I0
I0
I0
tp474
sg29
(lp475
sg95
I-1
sg31
I0
sg32
I38
sg96
(lp476
sg33
I2
sbsI39
g0
(g82
g5
Ntp477
Rp478
(dp479
g86
I2
sg9
I7
sg10
g11
(S'\x07\xd8\x06\x04\x16*6\x00\x00\x00'
p480
tp481
Rp482
sg15
g16
sg17
VNGC 42059 2
p483
sg42
I37
sg19
I19
sg20
(lp484
sg22
(L-3655920000L
I307930000
I0
tp485
sg24
I3
sg26
I115
sg27
(I0
I0
I0
tp486
sg29
(lp487
sg95
I-1
sg31
I0
sg32
I39
sg96
(lp488
sg33
I2
sbsI40
g0
(g47
g5
Ntp489
Rp490
(dp491
g9
I7
sg10
g11
(S'\x07\xd8\x06\x04\x16*6\x00\x00\x00'
p492
tp493
Rp494
sg15
g16
sg17
VByzantis
p495
sg42
I1
sg19
I19
sg20
(lp496
I41
asg22
(L-2319000000L
L-2885000000L
I0
tp497
sg24
I2
sg26
I108
sg27
(I0
I0
I0
tp498
sg29
(lp499
sg59
I1
sg31
I0
sg32
I40
sg33
I60000
sbsI41
g0
(g82
g5
Ntp500
Rp501
(dp502
g86
I1
sg9
I7
sg10
g11
(S'\x07\xd8\x06\x04\x16*6\x00\x00\x00'
p503
tp504
Rp505
sg15
g16
sg17
VByzantis 1
p506
sg42
I40
sg19
I19
sg20
(lp507
sg22
(L-2318960000L
L-2885035000L
I0
tp508
sg24
I3
sg26
I114
sg27
(I0
I0
I0
tp509
sg29
(lp510
sg95
I-1
sg31
I0
sg32
I41
sg96
(lp511
sg33
I2
sbsI42
g0
(g47
g5
Ntp512
Rp513
(dp514
S'fleets'
p515
I3
sg9
I7
sg10
g11
(S'\x07\xd8\x06\x04\x16*6\x00\x00\x00'
p516
tp517
Rp518
sg15
g16
sg17
Vtest Star System
p519
sg42
I1
sg19
I19
sg20
(lp520
I43
aI44
aI45
aI46
asg22
(I175359744
I1164901888
I0
tp521
sg24
I2
sg26
I128
sg27
(I0
I0
I0
tp522
sg29
(lp523
sg59
I1
sg31
I0
sg32
I42
sg33
I80000
sbsI43
g0
(g82
g5
Ntp524
Rp525
(dp526
g86
I1
sg9
I7
sg10
g11
(S'\x07\xd8\x06\x04\x16*6\x00\x00\x00'
p527
tp528
Rp529
sg15
g16
sg17
Vtest Planet
p530
sg42
I42
sg19
I19
sg20
(lp531
sg22
(I175348644
I1164917358
I0
tp532
sg24
I3
sg26
I139
sg27
(I0
I0
I0
tp533
sg29
(lp534
I0
aI2
asg95
I2
sg31
I0
sg32
I43
sg96
(lp535
(I2
I1
I0
I0
tp536
asg33
I2
sbsI44
g0
(ctp.netlib.objects.ObjectExtra.Fleet
Fleet
p537
g5
Ntp538
Rp539
(dp540
g86
I1
sg9
I7
sg10
g11
(S'\x07\xd8\x06\x04\x16*6\x00\x00\x00'
p541
tp542
Rp543
sg15
g16
sg17
Vtest First Fleet
p544
sg42
I42
sg19
I19
sg20
(lp545
sS'ships'
p546
(lp547
(I2
I1
tp548
asg22
(I175338664
I1164917368
I0
tp549
sg24
I4
sg26
I152
sg27
(I0
I0
I0
tp550
sg29
(lp551
I0
aI1
aI3
aI4
aI5
asg95
I2
sS'damage'
p552
I0
sg31
I0
sg32
I44
sg33
I2
sbsI45
g0
(g537
g5
Ntp553
Rp554
(dp555
g86
I2
sg9
I7
sg10
g11
(S'\x07\xd8\x06\x04\x16*6\x00\x00\x00'
p556
tp557
Rp558
sg15
g16
sg17
Vtest Second Fleet
p559
sg42
I42
sg19
I19
sg20
(lp560
sg546
(lp561
(I2
I1
tp562
asg22
(I175321124
I1164898548
I0
tp563
sg24
I4
sg26
I153
sg27
(I0
I0
I0
tp564
sg29
(lp565
I0
aI1
aI3
aI4
aI5
asg95
I2
sg552
I0
sg31
I0
sg32
I45
sg33
I2
sbsI46
g0
(g537
g5
Ntp566
Rp567
(dp568
g86
I3
sg9
I7
sg10
g11
(S'\x07\xd8\x06\x04\x16*6\x00\x00\x00'
p569
tp570
Rp571
sg15
g16
sg17
Vtest Thrid Fleet
p572
sg42
I42
sg19
I19
sg20
(lp573
sg546
(lp574
(I2
I1
tp575
asg22
(I175326584
I1164892158
I0
tp576
sg24
I4
sg26
I152
sg27
(I0
I0
I0
tp577
sg29
(lp578
I0
aI1
aI3
aI4
aI5
asg95
I2
sg552
I0
sg31
I0
sg32
I46
sg33
I2
sbstp579
Rp580
(dp581
S'times'
p582
(dp583
I0
g14
sI1
g40
sI2
g53
sI3
g65
sI4
g76
sI5
g89
sI6
g103
sI7
g115
sI8
g127
sI9
g139
sI10
g151
sI11
g162
sI12
g173
sI13
g185
sI14
g196
sI15
g207
sI16
g219
sI17
g230
sI18
g241
sI19
g252
sI20
g264
sI21
g275
sI22
g287
sI23
g299
sI24
g310
sI25
g322
sI26
g333
sI27
g344
sI28
g356
sI29
g367
sI30
g379
sI31
g390
sI32
g402
sI33
g413
sI34
g424
sI35
g435
sI36
g447
sI37
g459
sI38
g470
sI39
g482
sI40
g494
sI41
g505
sI42
g518
sI43
g529
sI44
g543
sI45
g558
sI46
g571
ssb.